; Function Attrs: mustprogress nounwind uwtable
define dso_local void @_ZN4node6crypto13KeyObjectData12CreateSecretENS0_10ByteSourceE(ptr noalias nocapture writeonly sret(%"class.std::shared_ptr.7") align 8 %agg.result, ptr noundef %key) local_unnamed_addr #3 align 2 {
entry:
  %agg.tmp = alloca %"class.node::crypto::ByteSource", align 8
  %call = tail call noalias noundef nonnull dereferenceable(72) ptr @_Znwm(i64 noundef 72) #23
  call void @_ZN4node6crypto10ByteSourceC1EOS1_(ptr noundef nonnull align 8 dereferenceable(24) %agg.tmp, ptr noundef nonnull align 8 dereferenceable(24) %key) #24
  store ptr getelementptr inbounds ({ [10 x ptr] }, ptr @_ZTVN4node6crypto13KeyObjectDataE, i64 0, i32 0, i64 2), ptr %call, align 8
  %key_type_.i = getelementptr inbounds i8, ptr %call, i64 8
  store i32 0, ptr %key_type_.i, align 8
  %symmetric_key_.i = getelementptr inbounds i8, ptr %call, i64 16
  call void @_ZN4node6crypto10ByteSourceC1EOS1_(ptr noundef nonnull align 8 dereferenceable(24) %symmetric_key_.i, ptr noundef nonnull align 8 dereferenceable(24) %agg.tmp) #24
  %asymmetric_key_.i = getelementptr inbounds i8, ptr %call, i64 40
  store ptr getelementptr inbounds ({ [10 x ptr] }, ptr @_ZTVN4node6crypto14ManagedEVPPKeyE, i64 0, i32 0, i64 2), ptr %asymmetric_key_.i, align 8
  %pkey_.i.i = getelementptr inbounds i8, ptr %call, i64 48
  store ptr null, ptr %pkey_.i.i, align 8
  call void @llvm.experimental.noalias.scope.decl(metadata !75)
  %call5.i.i.i.i.i.i.i.i.i = call noalias noundef nonnull dereferenceable(56) ptr @_Znwm(i64 noundef 56) #23, !noalias !78
  %_M_use_count.i.i.i.i.i.i.i.i = getelementptr inbounds i8, ptr %call5.i.i.i.i.i.i.i.i.i, i64 8
  store i32 1, ptr %_M_use_count.i.i.i.i.i.i.i.i, align 8, !noalias !75
  %_M_weak_count.i.i.i.i.i.i.i.i = getelementptr inbounds i8, ptr %call5.i.i.i.i.i.i.i.i.i, i64 12
  store i32 1, ptr %_M_weak_count.i.i.i.i.i.i.i.i, align 4, !noalias !75
  store ptr getelementptr inbounds ({ [7 x ptr] }, ptr @_ZTVSt23_Sp_counted_ptr_inplaceIN4node9MutexBaseINS0_16LibuvMutexTraitsEEESaIvELN9__gnu_cxx12_Lock_policyE2EE, i64 0, i32 0, i64 2), ptr %call5.i.i.i.i.i.i.i.i.i, align 8, !noalias !75
  %_M_impl.i.i.i.i.i.i.i.i = getelementptr inbounds i8, ptr %call5.i.i.i.i.i.i.i.i.i, i64 16
  %call.i.i.i.i.i.i.i.i.i.i.i = call noundef i32 @uv_mutex_init(ptr noundef nonnull %_M_impl.i.i.i.i.i.i.i.i) #24, !noalias !75
  %cmp.not.i.i.i.i.i.i.i.i.i.i = icmp eq i32 %call.i.i.i.i.i.i.i.i.i.i.i, 0
  br i1 %cmp.not.i.i.i.i.i.i.i.i.i.i, label %_ZN4node6crypto13KeyObjectDataC2ENS0_10ByteSourceE.exit, label %do.body5.i.i.i.i.i.i.i.i.i.i

do.body5.i.i.i.i.i.i.i.i.i.i:                     ; preds = %entry
  call void @_ZN4node6AssertERKNS_13AssertionInfoE(ptr noundef nonnull align 8 dereferenceable(24) @_ZZN4node9MutexBaseINS_16LibuvMutexTraitsEEC1EvE4args) #24, !noalias !75
  call void @abort() #25, !noalias !75
  unreachable

_ZN4node6crypto13KeyObjectDataC2ENS0_10ByteSourceE.exit: ; preds = %entry
  %mutex_.i.i = getelementptr inbounds i8, ptr %call, i64 56
  %_M_refcount.i.i.i.i.i = getelementptr inbounds i8, ptr %call, i64 64
  store ptr %call5.i.i.i.i.i.i.i.i.i, ptr %_M_refcount.i.i.i.i.i, align 8, !alias.scope !75
  store ptr %_M_impl.i.i.i.i.i.i.i.i, ptr %mutex_.i.i, align 8, !alias.scope !75
  store ptr %call, ptr %agg.result, align 8
  %_M_refcount.i.i = getelementptr inbounds i8, ptr %agg.result, i64 8
  %call.i.i.i.i = call noalias noundef nonnull dereferenceable(24) ptr @_Znwm(i64 noundef 24) #23
  %_M_use_count.i.i.i.i.i.i = getelementptr inbounds i8, ptr %call.i.i.i.i, i64 8
  store i32 1, ptr %_M_use_count.i.i.i.i.i.i, align 8
  %_M_weak_count.i.i.i.i.i.i = getelementptr inbounds i8, ptr %call.i.i.i.i, i64 12
  store i32 1, ptr %_M_weak_count.i.i.i.i.i.i, align 4
  store ptr getelementptr inbounds ({ [7 x ptr] }, ptr @_ZTVSt15_Sp_counted_ptrIPN4node6crypto13KeyObjectDataELN9__gnu_cxx12_Lock_policyE2EE, i64 0, i32 0, i64 2), ptr %call.i.i.i.i, align 8
  %_M_ptr.i.i.i.i.i = getelementptr inbounds i8, ptr %call.i.i.i.i, i64 16
  store ptr %call, ptr %_M_ptr.i.i.i.i.i, align 8
  store ptr %call.i.i.i.i, ptr %_M_refcount.i.i, align 8
  call void @_ZN4node6crypto10ByteSourceD1Ev(ptr noundef nonnull align 8 dereferenceable(24) %agg.tmp) #24
  ret void
}